(dp0
S'http://adrianmoore.net/com506/test_web/pageRank.html'
p1
(lp2
S'http://adrianmoore.net/com506/test_web/interesting.html'
p3
asS'http://adrianmoore.net/com506/test_web/index.html'
p4
(lp5
S'http://adrianmoore.net/com506/test_web/webcrawler.html'
p6
aS'http://adrianmoore.net/com506/test_web/content.html'
p7
aS'http://adrianmoore.net/com506/test_web/pageRank.html'
p8
asS'http://adrianmoore.net/com506/test_web/webcrawler.html'
p9
(lp10
S'http://adrianmoore.net/com506/test_web/content.html'
p11
aS'http://adrianmoore.net/com506/test_web/index.html'
p12
asS'http://adrianmoore.net/com506/test_web/content.html'
p13
(lp14
sS'http://adrianmoore.net/com506/test_web/interesting2.html'
p15
(lp16
S'http://adrianmoore.net/com506/test_web/interesting3.html'
p17
asS'http://adrianmoore.net/com506/test_web/interesting.html'
p18
(lp19
S'http://adrianmoore.net/com506/test_web/interesting2.html'
p20
as.