(dp0
S'http://adrianmoore.net/com506/test_web/pageRank.html'
p1
F0.03647890018387866
sS'http://adrianmoore.net/com506/test_web/index.html'
p2
F0.04050532595138756
sS'http://adrianmoore.net/com506/test_web/webcrawler.html'
p3
F0.03647890018387866
sS'http://adrianmoore.net/com506/test_web/content.html'
p4
F0.051984226135266216
sS'http://adrianmoore.net/com506/test_web/interesting2.html'
p5
F0.07262340110327188
sS'http://adrianmoore.net/com506/test_web/interesting.html'
p6
F0.05601065190277512
s.